(dp0
VServer
p1
Vcmsweb.cern.ch
p2
sVPort
p3
V
p4
sVRequestName
p5
V250402_115606:choij_crab_DY3j_LO_5f_FORTRAN
p6
sVvoRole
p7
VNULL
p8
sVvoGroup
p9
g4
sVinstance
p10
Vprod
p11
sVOriginalConfig
p12
ccopy_reg
_reconstructor
p13
(cWMCore.Configuration
Configuration
p14
c__builtin__
object
p15
Ntp16
Rp17
(dp18
V_internal_sections
p19
(lp20
VGeneral
p21
aVJobType
p22
aVData
p23
aVSite
p24
aVUser
p25
aVDebug
p26
asg21
g13
(cWMCore.Configuration
ConfigSection
p27
g15
Ntp28
Rp29
(dp30
V_internal_documentation
p31
g4
sV_internal_name
p32
g21
sV_internal_settings
p33
c__builtin__
set
p34
((lp35
VtransferLogs
p36
aVworkArea
p37
aVtransferOutputs
p38
aVrequestName
p39
atp40
Rp41
sV_internal_docstrings
p42
(dp43
sV_internal_children
p44
g34
((lp45
tp46
Rp47
sV_internal_parent_ref
p48
NsV_internal_skipChecks
p49
I00
sg37
Vcrab_projects
p50
sg39
VDY3j_LO_5f_FORTRAN
p51
sg38
I01
sg36
I00
sbsg22
g13
(g27
g15
Ntp52
Rp53
(dp54
g31
g4
sg32
g22
sg33
g34
((lp55
VpluginName
p56
aVallowUndistributedCMSSW
p57
aVpsetName
p58
aVnumCores
p59
aVmaxMemoryMB
p60
atp61
Rp62
sg42
(dp63
sg44
g34
((lp64
tp65
Rp66
sg48
Nsg49
I00
sg58
V../configs/Hadronizer_TuneCP5_13p6TeV_DY3j_LO_5f_FORTRAN_LHE_pythia8_cfg.py
p67
sg56
VPrivateMC
p68
sg57
I00
sg59
I1
sg60
I5000
sbsg23
g13
(g27
g15
Ntp69
Rp70
(dp71
g31
g4
sg32
g23
sg33
g34
((lp72
VtotalUnits
p73
aVoutputDatasetTag
p74
aVpublication
p75
aVoutLFNDirBase
p76
aVsplitting
p77
aVoutputPrimaryDataset
p78
aVunitsPerJob
p79
atp80
Rp81
sg42
(dp82
sg44
g34
((lp83
tp84
Rp85
sg48
Nsg49
I00
sg78
g51
sg77
VEventBased
p86
sg79
I4000
sg73
I160000
sg76
V/store/user/choij/MG4GPU/Validation
p87
sg75
I00
sg74
VRun3Summer23wmLHEGS
p88
sbsg24
g13
(g27
g15
Ntp89
Rp90
(dp91
g31
g4
sg32
g24
sg33
g34
((lp92
VstorageSite
p93
atp94
Rp95
sg42
(dp96
sg44
g34
((lp97
tp98
Rp99
sg48
Nsg49
I00
sg93
VT3_KR_KNU
p100
sbsg25
g13
(g27
g15
Ntp101
Rp102
(dp103
g31
g4
sg32
g25
sg33
g34
((lp104
tp105
Rp106
sg42
(dp107
sg44
g34
((lp108
tp109
Rp110
sg48
Nsg49
I00
sbsg26
g13
(g27
g15
Ntp111
Rp112
(dp113
g31
g4
sg32
g26
sg33
g34
((lp114
tp115
Rp116
sg42
(dp117
sg44
g34
((lp118
tp119
Rp120
sg48
Nsg49
I00
sbsbs.